; Function Attrs: mustprogress nounwind uwtable
define dso_local void @_ZN5clang17OverridingMethods3addEjNS_19UniqueVirtualMethodE(ptr noundef nonnull align 8 dereferenceable(40) %0, i32 noundef %1, ptr noundef byval(%"struct.clang::UniqueVirtualMethod") align 8 %2) local_unnamed_addr #0 align 2 {
  %4 = alloca i32, align 4
  store i32 %1, ptr %4, align 4
  %5 = call noundef nonnull align 8 dereferenceable(112) ptr @_ZN4llvm9MapVectorIjNS_11SmallVectorIN5clang19UniqueVirtualMethodELj4EEENS_8DenseMapIjjNS_12DenseMapInfoIjvEENS_6detail12DenseMapPairIjjEEEENS1_ISt4pairIjS4_ELj0EEEEixERKj(ptr noundef nonnull align 8 dereferenceable(40) %0, ptr noundef nonnull align 4 dereferenceable(4) %4)
  %6 = load ptr, ptr %5, align 8
  %7 = call noundef i64 @_ZNK4llvm15SmallVectorBaseIjE4sizeEv(ptr noundef nonnull align 8 dereferenceable(16) %5) #15
  %8 = getelementptr inbounds %"struct.clang::UniqueVirtualMethod", ptr %6, i64 %7
  %9 = call noundef ptr @_ZSt9__find_ifIPN5clang19UniqueVirtualMethodEN9__gnu_cxx5__ops16_Iter_equals_valIKS1_EEET_S8_S8_T0_St26random_access_iterator_tag(ptr noundef %6, ptr noundef %8, ptr nonnull %2)
  %10 = load ptr, ptr %5, align 8
  %11 = call noundef i64 @_ZNK4llvm15SmallVectorBaseIjE4sizeEv(ptr noundef nonnull align 8 dereferenceable(16) %5) #15
  %12 = getelementptr inbounds %"struct.clang::UniqueVirtualMethod", ptr %10, i64 %11
  %.not = icmp eq ptr %9, %12
  br i1 %.not, label %13, label %14

13:                                               ; preds = %3
  call void @_ZN4llvm23SmallVectorTemplateBaseIN5clang19UniqueVirtualMethodELb1EE9push_backERKS2_(ptr noundef nonnull align 8 dereferenceable(16) %5, ptr noundef nonnull align 8 dereferenceable(24) %2)
  br label %14

14:                                               ; preds = %13, %3
  ret void
}